target datalayout = "e-m:e-p270:32:32-p271:32:32-p272:64:64-i64:64-i128:128-f80:128-n8:16:32:64-S128"
target triple = "x86_64-pc-linux-gnu"

%"class.std::basic_ostream" = type { ptr, %"class.std::basic_ios" }
%"class.std::basic_ios" = type { %"class.std::ios_base", ptr, i8, i8, ptr, ptr, ptr, ptr }
%"class.std::ios_base" = type { ptr, i64, i64, i32, i32, i32, ptr, %"struct.std::ios_base::_Words", [8 x %"struct.std::ios_base::_Words"], i32, ptr, %"class.std::locale" }
%"struct.std::ios_base::_Words" = type { ptr, i64 }
%"class.std::locale" = type { ptr }
%"class.pxrInternal_v0_24__pxrReserved__::TfCallContext" = type <{ ptr, ptr, i64, ptr, i8, [7 x i8] }>
%"class.pxrInternal_v0_24__pxrReserved__::TfErrorMark" = type { i64 }
%"class.pxrInternal_v0_24__pxrReserved__::TfDiagnosticMgr" = type <{ ptr, %"class.pxrInternal_v0_24__pxrReserved__::TfWeakBase", %"class.tbb::detail::d1::enumerable_thread_specific", %"class.std::vector.105", %"class.tbb::detail::d1::spin_rw_mutex", %"struct.std::atomic.97", %"class.tbb::detail::d1::enumerable_thread_specific.112", %"class.tbb::detail::d1::enumerable_thread_specific.121", %"class.tbb::detail::d1::enumerable_thread_specific.130", i8, [7 x i8] }>
%"class.pxrInternal_v0_24__pxrReserved__::TfWeakBase" = type { %"struct.std::atomic.62" }
%"struct.std::atomic.62" = type { %"struct.std::__atomic_base.63" }
%"struct.std::__atomic_base.63" = type { ptr }
%"class.tbb::detail::d1::enumerable_thread_specific" = type { %"class.tbb::detail::d1::ets_base", ptr, %"class.tbb::detail::d1::concurrent_vector" }
%"class.tbb::detail::d1::ets_base" = type { ptr, %"struct.std::atomic.95", %"struct.std::atomic.97" }
%"struct.std::atomic.95" = type { %"struct.std::__atomic_base.96" }
%"struct.std::__atomic_base.96" = type { ptr }
%"class.tbb::detail::d1::concurrent_vector" = type { %"class.tbb::detail::d1::segment_table.base", [7 x i8] }
%"class.tbb::detail::d1::segment_table.base" = type <{ ptr, [8 x i8], %"struct.std::atomic.99", [3 x %"struct.std::atomic.101"], %"struct.std::atomic.97", %"struct.std::atomic.97", %"struct.std::atomic.103" }>
%"struct.std::atomic.99" = type { %"struct.std::__atomic_base.100" }
%"struct.std::__atomic_base.100" = type { ptr }
%"struct.std::atomic.101" = type { %"struct.std::__atomic_base.102" }
%"struct.std::__atomic_base.102" = type { ptr }
%"struct.std::atomic.103" = type { %"struct.std::__atomic_base.104" }
%"struct.std::__atomic_base.104" = type { i8 }
%"class.std::vector.105" = type { %"struct.std::_Vector_base.106" }
%"struct.std::_Vector_base.106" = type { %"struct.std::_Vector_base<pxrInternal_v0_24__pxrReserved__::TfDiagnosticMgr::Delegate *, std::allocator<pxrInternal_v0_24__pxrReserved__::TfDiagnosticMgr::Delegate *>>::_Vector_impl" }
%"struct.std::_Vector_base<pxrInternal_v0_24__pxrReserved__::TfDiagnosticMgr::Delegate *, std::allocator<pxrInternal_v0_24__pxrReserved__::TfDiagnosticMgr::Delegate *>>::_Vector_impl" = type { %"struct.std::_Vector_base<pxrInternal_v0_24__pxrReserved__::TfDiagnosticMgr::Delegate *, std::allocator<pxrInternal_v0_24__pxrReserved__::TfDiagnosticMgr::Delegate *>>::_Vector_impl_data" }
%"struct.std::_Vector_base<pxrInternal_v0_24__pxrReserved__::TfDiagnosticMgr::Delegate *, std::allocator<pxrInternal_v0_24__pxrReserved__::TfDiagnosticMgr::Delegate *>>::_Vector_impl_data" = type { ptr, ptr, ptr }
%"class.tbb::detail::d1::spin_rw_mutex" = type { %"struct.std::atomic.110" }
%"struct.std::atomic.110" = type { %"struct.std::__atomic_base.111" }
%"struct.std::__atomic_base.111" = type { i64 }
%"struct.std::atomic.97" = type { %"struct.std::__atomic_base.98" }
%"struct.std::__atomic_base.98" = type { i64 }
%"class.tbb::detail::d1::enumerable_thread_specific.112" = type { %"class.tbb::detail::d1::ets_base", ptr, %"class.tbb::detail::d1::concurrent_vector.113" }
%"class.tbb::detail::d1::concurrent_vector.113" = type { %"class.tbb::detail::d1::segment_table.base.119", [7 x i8] }
%"class.tbb::detail::d1::segment_table.base.119" = type <{ ptr, [8 x i8], %"struct.std::atomic.115", [3 x %"struct.std::atomic.117"], %"struct.std::atomic.97", %"struct.std::atomic.97", %"struct.std::atomic.103" }>
%"struct.std::atomic.115" = type { %"struct.std::__atomic_base.116" }
%"struct.std::__atomic_base.116" = type { ptr }
%"struct.std::atomic.117" = type { %"struct.std::__atomic_base.118" }
%"struct.std::__atomic_base.118" = type { ptr }
%"class.tbb::detail::d1::enumerable_thread_specific.121" = type { %"class.tbb::detail::d1::ets_base", ptr, %"class.tbb::detail::d1::concurrent_vector.122" }
%"class.tbb::detail::d1::concurrent_vector.122" = type { %"class.tbb::detail::d1::segment_table.base.128", [7 x i8] }
%"class.tbb::detail::d1::segment_table.base.128" = type <{ ptr, [8 x i8], %"struct.std::atomic.124", [3 x %"struct.std::atomic.126"], %"struct.std::atomic.97", %"struct.std::atomic.97", %"struct.std::atomic.103" }>
%"struct.std::atomic.124" = type { %"struct.std::__atomic_base.125" }
%"struct.std::__atomic_base.125" = type { ptr }
%"struct.std::atomic.126" = type { %"struct.std::__atomic_base.127" }
%"struct.std::__atomic_base.127" = type { ptr }
%"class.tbb::detail::d1::enumerable_thread_specific.130" = type { %"class.tbb::detail::d1::ets_base.base", ptr, %"class.tbb::detail::d1::concurrent_vector.132" }
%"class.tbb::detail::d1::ets_base.base" = type <{ %"class.tbb::detail::d1::ets_base", i32 }>
%"class.tbb::detail::d1::concurrent_vector.132" = type { %"class.tbb::detail::d1::segment_table.base.138", [7 x i8] }
%"class.tbb::detail::d1::segment_table.base.138" = type <{ ptr, [8 x i8], %"struct.std::atomic.134", [3 x %"struct.std::atomic.136"], %"struct.std::atomic.97", %"struct.std::atomic.97", %"struct.std::atomic.103" }>
%"struct.std::atomic.134" = type { %"struct.std::__atomic_base.135" }
%"struct.std::__atomic_base.135" = type { ptr }
%"struct.std::atomic.136" = type { %"struct.std::__atomic_base.137" }
%"struct.std::__atomic_base.137" = type { ptr }

@.str = private unnamed_addr constant [161 x i8] c"generated/home/dtcxzyw/WorkSpace/Projects/compilers/llvm-opt-benchmark/bench/openusd/OpenUSD/pxr/imaging/hdsi/testenv/testHdsiPinnedCurveExpandingSceneIndex.cpp\00", align 1
@__func__.main = private unnamed_addr constant [5 x i8] c"main\00", align 1
@__PRETTY_FUNCTION__.main = private unnamed_addr constant [23 x i8] c"int main(int, char **)\00", align 1
@.str.26 = private unnamed_addr constant [15 x i8] c"mark.IsClean()\00", align 1
@_ZSt4cout = external global %"class.std::basic_ostream", align 8
@.str.27 = private unnamed_addr constant [3 x i8] c"OK\00", align 1
@.str.28 = private unnamed_addr constant [7 x i8] c"FAILED\00", align 1

; Function Attrs: mustprogress nounwind uwtable
define linkonce_odr dso_local noundef i32 @_ZStanSt12memory_orderSt23__memory_order_modifier(i32 noundef %0, i32 noundef %1) #5 comdat {
  %3 = alloca i32, align 4
  %4 = alloca i32, align 4
  store i32 %0, ptr %3, align 4
  store i32 %1, ptr %4, align 4
  %5 = load i32, ptr %3, align 4
  %6 = load i32, ptr %4, align 4
  %7 = and i32 %5, %6
  ret i32 %7
}

; Function Attrs: mustprogress nounwind uwtable
define linkonce_odr dso_local noundef i64 @_ZNKSt13__atomic_baseImEcvmEv(ptr noundef nonnull align 8 dereferenceable(8) %0) #5 comdat align 2 {
  %2 = alloca ptr, align 8
  %3 = alloca i32, align 4
  %4 = alloca i32, align 4
  %5 = alloca i64, align 8
  %6 = alloca ptr, align 8
  store ptr %0, ptr %6, align 8
  %7 = load ptr, ptr %6, align 8
  store ptr %7, ptr %2, align 8
  store i32 5, ptr %3, align 4
  %8 = load ptr, ptr %2, align 8
  %9 = load i32, ptr %3, align 4
  %10 = call noundef i32 @_ZStanSt12memory_orderSt23__memory_order_modifier(i32 noundef %9, i32 noundef 65535)
  store i32 %10, ptr %4, align 4
  %11 = load i32, ptr %3, align 4
  switch i32 %11, label %12 [
    i32 1, label %14
    i32 2, label %14
    i32 5, label %16
  ]

12:                                               ; preds = %1
  %13 = load atomic i64, ptr %8 monotonic, align 8
  store i64 %13, ptr %5, align 8
  br label %18

14:                                               ; preds = %1, %1
  %15 = load atomic i64, ptr %8 acquire, align 8
  store i64 %15, ptr %5, align 8
  br label %18

16:                                               ; preds = %1
  %17 = load atomic i64, ptr %8 seq_cst, align 8
  store i64 %17, ptr %5, align 8
  br label %18

18:                                               ; preds = %16, %14, %12
  %19 = load i64, ptr %5, align 8
  ret i64 %19
}

; Function Attrs: mustprogress uwtable
define linkonce_odr dso_local noundef nonnull align 8 dereferenceable(481) ptr @_ZN32pxrInternal_v0_24__pxrReserved__15TfDiagnosticMgr11GetInstanceEv() #4 comdat align 2 {
  %1 = call noundef nonnull align 8 dereferenceable(481) ptr @_ZN32pxrInternal_v0_24__pxrReserved__11TfSingletonINS_15TfDiagnosticMgrEE11GetInstanceEv()
  ret ptr %1
}

; Function Attrs: mustprogress nounwind uwtable
define linkonce_odr dso_local noundef ptr @_ZN32pxrInternal_v0_24__pxrReserved__21Tf_VerifyStringFormatEv() #5 comdat {
  ret ptr null
}

; Function Attrs: mustprogress nounwind uwtable
define linkonce_odr dso_local void @_ZN32pxrInternal_v0_24__pxrReserved__13TfCallContextC2EPKcS2_mS2_(ptr noundef nonnull align 8 dereferenceable(33) %0, ptr noundef %1, ptr noundef %2, i64 noundef %3, ptr noundef %4) unnamed_addr #5 comdat align 2 {
  %6 = alloca ptr, align 8
  %7 = alloca ptr, align 8
  %8 = alloca ptr, align 8
  %9 = alloca i64, align 8
  %10 = alloca ptr, align 8
  store ptr %0, ptr %6, align 8
  store ptr %1, ptr %7, align 8
  store ptr %2, ptr %8, align 8
  store i64 %3, ptr %9, align 8
  store ptr %4, ptr %10, align 8
  %11 = load ptr, ptr %6, align 8
  %12 = getelementptr inbounds nuw %"class.pxrInternal_v0_24__pxrReserved__::TfCallContext", ptr %11, i32 0, i32 0
  %13 = load ptr, ptr %7, align 8
  store ptr %13, ptr %12, align 8
  %14 = getelementptr inbounds nuw %"class.pxrInternal_v0_24__pxrReserved__::TfCallContext", ptr %11, i32 0, i32 1
  %15 = load ptr, ptr %8, align 8
  store ptr %15, ptr %14, align 8
  %16 = getelementptr inbounds nuw %"class.pxrInternal_v0_24__pxrReserved__::TfCallContext", ptr %11, i32 0, i32 2
  %17 = load i64, ptr %9, align 8
  store i64 %17, ptr %16, align 8
  %18 = getelementptr inbounds nuw %"class.pxrInternal_v0_24__pxrReserved__::TfCallContext", ptr %11, i32 0, i32 3
  %19 = load ptr, ptr %10, align 8
  store ptr %19, ptr %18, align 8
  %20 = getelementptr inbounds nuw %"class.pxrInternal_v0_24__pxrReserved__::TfCallContext", ptr %11, i32 0, i32 4
  store i8 0, ptr %20, align 8
  ret void
}

; Function Attrs: mustprogress uwtable
define linkonce_odr dso_local noundef zeroext i1 @_ZNK32pxrInternal_v0_24__pxrReserved__11TfErrorMark7IsCleanEv(ptr noundef nonnull align 8 dereferenceable(8) %0) #4 comdat align 2 {
  %2 = alloca ptr, align 8
  %3 = alloca ptr, align 8
  store ptr %0, ptr %2, align 8
  %4 = load ptr, ptr %2, align 8
  %5 = call noundef nonnull align 8 dereferenceable(481) ptr @_ZN32pxrInternal_v0_24__pxrReserved__15TfDiagnosticMgr11GetInstanceEv()
  store ptr %5, ptr %3, align 8
  %6 = getelementptr inbounds nuw %"class.pxrInternal_v0_24__pxrReserved__::TfErrorMark", ptr %4, i32 0, i32 0
  %7 = load i64, ptr %6, align 8
  %8 = load ptr, ptr %3, align 8
  %9 = getelementptr inbounds nuw %"class.pxrInternal_v0_24__pxrReserved__::TfDiagnosticMgr", ptr %8, i32 0, i32 5
  %10 = call noundef i64 @_ZNKSt13__atomic_baseImEcvmEv(ptr noundef nonnull align 8 dereferenceable(8) %9) #3
  %11 = icmp uge i64 %7, %10
  br i1 %11, label %15, label %12

12:                                               ; preds = %1
  %13 = load ptr, ptr %3, align 8
  %14 = call noundef zeroext i1 @_ZNK32pxrInternal_v0_24__pxrReserved__11TfErrorMark12_IsCleanImplERNS_15TfDiagnosticMgrE(ptr noundef nonnull align 8 dereferenceable(8) %4, ptr noundef nonnull align 8 dereferenceable(481) %13)
  br label %15

15:                                               ; preds = %12, %1
  %16 = phi i1 [ true, %1 ], [ %14, %12 ]
  ret i1 %16
}

; Function Attrs: mustprogress uwtable
define dso_local noundef zeroext i1 @_Z49TestPinnedCurvesWithCurveIndicesAndIndexedPrimvarv() #4 {
  %1 = call noundef zeroext i1 @_Z16TestPinnedCurvesbb(i1 noundef zeroext true, i1 noundef zeroext true)
  ret i1 %1
}

; Function Attrs: mustprogress uwtable
define dso_local noundef zeroext i1 @_Z32TestPinnedCurvesWithCurveIndicesv() #4 {
  %1 = call noundef zeroext i1 @_Z16TestPinnedCurvesbb(i1 noundef zeroext true, i1 noundef zeroext false)
  ret i1 %1
}

; Function Attrs: mustprogress uwtable
define dso_local noundef zeroext i1 @_Z34TestPinnedCurvesWithIndexedPrimvarv() #4 {
  %1 = call noundef zeroext i1 @_Z16TestPinnedCurvesbb(i1 noundef zeroext false, i1 noundef zeroext true)
  ret i1 %1
}

; Function Attrs: mustprogress uwtable
define dso_local noundef zeroext i1 @_Z22TestSimplePinnedCurvesv() #4 {
  %1 = call noundef zeroext i1 @_Z16TestPinnedCurvesbb(i1 noundef zeroext false, i1 noundef zeroext false)
  ret i1 %1
}

; Function Attrs: mustprogress norecurse uwtable
define dso_local noundef i32 @main(i32 noundef %0, ptr noundef %1) #8 personality ptr @__gxx_personality_v0 {
  %3 = alloca i32, align 4
  %4 = alloca i32, align 4
  %5 = alloca ptr, align 8
  %6 = alloca %"class.pxrInternal_v0_24__pxrReserved__::TfErrorMark", align 8
  %7 = alloca i8, align 1
  %8 = alloca ptr, align 8
  %9 = alloca i32, align 4
  %10 = alloca %"class.pxrInternal_v0_24__pxrReserved__::TfCallContext", align 8
  %11 = alloca i32, align 4
  store i32 0, ptr %3, align 4
  store i32 %0, ptr %4, align 4
  store ptr %1, ptr %5, align 8
  call void @_ZN32pxrInternal_v0_24__pxrReserved__11TfErrorMarkC1Ev(ptr noundef nonnull align 8 dereferenceable(8) %6)
  store i8 1, ptr %7, align 1
  %12 = invoke noundef zeroext i1 @_Z22TestSimplePinnedCurvesv()
          to label %13 unwind label %68

13:                                               ; preds = %2
  %14 = zext i1 %12 to i32
  %15 = load i8, ptr %7, align 1
  %16 = trunc i8 %15 to i1
  %17 = zext i1 %16 to i32
  %18 = and i32 %17, %14
  %19 = icmp ne i32 %18, 0
  %20 = zext i1 %19 to i8
  store i8 %20, ptr %7, align 1
  %21 = invoke noundef zeroext i1 @_Z34TestPinnedCurvesWithIndexedPrimvarv()
          to label %22 unwind label %68

22:                                               ; preds = %13
  %23 = zext i1 %21 to i32
  %24 = load i8, ptr %7, align 1
  %25 = trunc i8 %24 to i1
  %26 = zext i1 %25 to i32
  %27 = and i32 %26, %23
  %28 = icmp ne i32 %27, 0
  %29 = zext i1 %28 to i8
  store i8 %29, ptr %7, align 1
  %30 = invoke noundef zeroext i1 @_Z32TestPinnedCurvesWithCurveIndicesv()
          to label %31 unwind label %68

31:                                               ; preds = %22
  %32 = zext i1 %30 to i32
  %33 = load i8, ptr %7, align 1
  %34 = trunc i8 %33 to i1
  %35 = zext i1 %34 to i32
  %36 = and i32 %35, %32
  %37 = icmp ne i32 %36, 0
  %38 = zext i1 %37 to i8
  store i8 %38, ptr %7, align 1
  %39 = invoke noundef zeroext i1 @_Z49TestPinnedCurvesWithCurveIndicesAndIndexedPrimvarv()
          to label %40 unwind label %68

40:                                               ; preds = %31
  %41 = zext i1 %39 to i32
  %42 = load i8, ptr %7, align 1
  %43 = trunc i8 %42 to i1
  %44 = zext i1 %43 to i32
  %45 = and i32 %44, %41
  %46 = icmp ne i32 %45, 0
  %47 = zext i1 %46 to i8
  store i8 %47, ptr %7, align 1
  %48 = invoke noundef zeroext i1 @_ZNK32pxrInternal_v0_24__pxrReserved__11TfErrorMark7IsCleanEv(ptr noundef nonnull align 8 dereferenceable(8) %6)
          to label %49 unwind label %68

49:                                               ; preds = %40
  br i1 %48, label %50, label %51

50:                                               ; preds = %49
  br label %57

51:                                               ; preds = %49
  invoke void @_ZN32pxrInternal_v0_24__pxrReserved__13TfCallContextC2EPKcS2_mS2_(ptr noundef nonnull align 8 dereferenceable(33) %10, ptr noundef @.str, ptr noundef @__func__.main, i64 noundef 633, ptr noundef @__PRETTY_FUNCTION__.main)
          to label %52 unwind label %68

52:                                               ; preds = %51
  %53 = invoke noundef ptr @_ZN32pxrInternal_v0_24__pxrReserved__21Tf_VerifyStringFormatEv()
          to label %54 unwind label %68

54:                                               ; preds = %52
  %55 = invoke noundef zeroext i1 @_ZN32pxrInternal_v0_24__pxrReserved__21Tf_FailedVerifyHelperERKNS_13TfCallContextEPKcS4_(ptr noundef nonnull align 8 dereferenceable(33) %10, ptr noundef @.str.26, ptr noundef %53)
          to label %56 unwind label %68

56:                                               ; preds = %54
  br label %57

57:                                               ; preds = %56, %50
  %58 = load i8, ptr %7, align 1
  %59 = trunc i8 %58 to i1
  br i1 %59, label %60, label %72

60:                                               ; preds = %57
  %61 = invoke noundef zeroext i1 @_ZNK32pxrInternal_v0_24__pxrReserved__11TfErrorMark7IsCleanEv(ptr noundef nonnull align 8 dereferenceable(8) %6)
          to label %62 unwind label %68

62:                                               ; preds = %60
  br i1 %61, label %63, label %72

63:                                               ; preds = %62
  %64 = invoke noundef nonnull align 8 dereferenceable(8) ptr @_ZStlsISt11char_traitsIcEERSt13basic_ostreamIcT_ES5_PKc(ptr noundef nonnull align 8 dereferenceable(8) @_ZSt4cout, ptr noundef @.str.27)
          to label %65 unwind label %68

65:                                               ; preds = %63
  %66 = invoke noundef nonnull align 8 dereferenceable(8) ptr @_ZNSolsEPFRSoS_E(ptr noundef nonnull align 8 dereferenceable(8) %64, ptr noundef @_ZSt4endlIcSt11char_traitsIcEERSt13basic_ostreamIT_T0_ES6_)
          to label %67 unwind label %68

67:                                               ; preds = %65
  store i32 0, ptr %3, align 4
  store i32 1, ptr %11, align 4
  br label %77

68:                                               ; preds = %74, %72, %65, %63, %60, %54, %52, %51, %40, %31, %22, %13, %2
  %69 = landingpad { ptr, i32 }
          cleanup
  %70 = extractvalue { ptr, i32 } %69, 0
  store ptr %70, ptr %8, align 8
  %71 = extractvalue { ptr, i32 } %69, 1
  store i32 %71, ptr %9, align 4
  call void @_ZN32pxrInternal_v0_24__pxrReserved__11TfErrorMarkD1Ev(ptr noundef nonnull align 8 dereferenceable(8) %6) #3
  br label %79

72:                                               ; preds = %62, %57
  %73 = invoke noundef nonnull align 8 dereferenceable(8) ptr @_ZStlsISt11char_traitsIcEERSt13basic_ostreamIcT_ES5_PKc(ptr noundef nonnull align 8 dereferenceable(8) @_ZSt4cout, ptr noundef @.str.28)
          to label %74 unwind label %68

74:                                               ; preds = %72
  %75 = invoke noundef nonnull align 8 dereferenceable(8) ptr @_ZNSolsEPFRSoS_E(ptr noundef nonnull align 8 dereferenceable(8) %73, ptr noundef @_ZSt4endlIcSt11char_traitsIcEERSt13basic_ostreamIT_T0_ES6_)
          to label %76 unwind label %68

76:                                               ; preds = %74
  store i32 1, ptr %3, align 4
  store i32 1, ptr %11, align 4
  br label %77

77:                                               ; preds = %76, %67
  call void @_ZN32pxrInternal_v0_24__pxrReserved__11TfErrorMarkD1Ev(ptr noundef nonnull align 8 dereferenceable(8) %6) #3
  %78 = load i32, ptr %3, align 4
  ret i32 %78

79:                                               ; preds = %68
  %80 = load ptr, ptr %8, align 8
  %81 = load i32, ptr %9, align 4
  %82 = insertvalue { ptr, i32 } poison, ptr %80, 0
  %83 = insertvalue { ptr, i32 } %82, i32 %81, 1
  resume { ptr, i32 } %83
}