; Function Attrs: mustprogress norecurse uwtable
define dso_local noundef range(i32 0, 2) i32 @main(i32 noundef %0, ptr nocapture noundef readnone %1) local_unnamed_addr #7 personality ptr @__gxx_personality_v0 {
  %3 = alloca %"class.pxrInternal_v0_24__pxrReserved__::TfErrorMark", align 8
  %4 = alloca %"class.pxrInternal_v0_24__pxrReserved__::TfCallContext", align 8
  call void @_ZN32pxrInternal_v0_24__pxrReserved__11TfErrorMarkC1Ev(ptr noundef nonnull align 8 dereferenceable(8) %3)
  %5 = invoke noundef zeroext i1 @_Z16TestPinnedCurvesbb(i1 noundef zeroext false, i1 noundef zeroext false)
          to label %_Z22TestSimplePinnedCurvesv.exit unwind label %34

_Z22TestSimplePinnedCurvesv.exit:                 ; preds = %2
  %6 = invoke noundef zeroext i1 @_Z16TestPinnedCurvesbb(i1 noundef zeroext false, i1 noundef zeroext true)
          to label %_Z34TestPinnedCurvesWithIndexedPrimvarv.exit unwind label %34

_Z34TestPinnedCurvesWithIndexedPrimvarv.exit:     ; preds = %_Z22TestSimplePinnedCurvesv.exit
  %7 = invoke noundef zeroext i1 @_Z16TestPinnedCurvesbb(i1 noundef zeroext true, i1 noundef zeroext false)
          to label %_Z32TestPinnedCurvesWithCurveIndicesv.exit unwind label %34

_Z32TestPinnedCurvesWithCurveIndicesv.exit:       ; preds = %_Z34TestPinnedCurvesWithIndexedPrimvarv.exit
  %8 = invoke noundef zeroext i1 @_Z16TestPinnedCurvesbb(i1 noundef zeroext true, i1 noundef zeroext true)
          to label %_Z49TestPinnedCurvesWithCurveIndicesAndIndexedPrimvarv.exit unwind label %34

_Z49TestPinnedCurvesWithCurveIndicesAndIndexedPrimvarv.exit: ; preds = %_Z32TestPinnedCurvesWithCurveIndicesv.exit
  %9 = and i1 %5, %6
  %10 = and i1 %9, %7
  %11 = and i1 %10, %8
  %12 = invoke noundef nonnull align 8 dereferenceable(481) ptr @_ZN32pxrInternal_v0_24__pxrReserved__11TfSingletonINS_15TfDiagnosticMgrEE11GetInstanceEv()
          to label %.noexc unwind label %34

.noexc:                                           ; preds = %_Z49TestPinnedCurvesWithCurveIndicesAndIndexedPrimvarv.exit
  %13 = load i64, ptr %3, align 8
  %14 = getelementptr inbounds nuw i8, ptr %12, i64 152
  %15 = load atomic i64, ptr %14 seq_cst, align 8
  %.not.i = icmp ult i64 %13, %15
  br i1 %.not.i, label %16, label %_ZNK32pxrInternal_v0_24__pxrReserved__11TfErrorMark7IsCleanEv.exit.thread

16:                                               ; preds = %.noexc
  %17 = invoke noundef zeroext i1 @_ZNK32pxrInternal_v0_24__pxrReserved__11TfErrorMark12_IsCleanImplERNS_15TfDiagnosticMgrE(ptr noundef nonnull align 8 dereferenceable(8) %3, ptr noundef nonnull align 8 dereferenceable(481) %12)
          to label %_ZNK32pxrInternal_v0_24__pxrReserved__11TfErrorMark7IsCleanEv.exit unwind label %34

_ZNK32pxrInternal_v0_24__pxrReserved__11TfErrorMark7IsCleanEv.exit: ; preds = %16
  br i1 %17, label %_ZNK32pxrInternal_v0_24__pxrReserved__11TfErrorMark7IsCleanEv.exit.thread, label %18

18:                                               ; preds = %_ZNK32pxrInternal_v0_24__pxrReserved__11TfErrorMark7IsCleanEv.exit
  store ptr @.str, ptr %4, align 8
  %19 = getelementptr inbounds nuw i8, ptr %4, i64 8
  store ptr @__func__.main, ptr %19, align 8
  %20 = getelementptr inbounds nuw i8, ptr %4, i64 16
  store i64 633, ptr %20, align 8
  %21 = getelementptr inbounds nuw i8, ptr %4, i64 24
  store ptr @__PRETTY_FUNCTION__.main, ptr %21, align 8
  %22 = getelementptr inbounds nuw i8, ptr %4, i64 32
  store i8 0, ptr %22, align 8
  %23 = invoke noundef zeroext i1 @_ZN32pxrInternal_v0_24__pxrReserved__21Tf_FailedVerifyHelperERKNS_13TfCallContextEPKcS4_(ptr noundef nonnull align 8 dereferenceable(33) %4, ptr noundef nonnull @.str.26, ptr noundef null)
          to label %_ZNK32pxrInternal_v0_24__pxrReserved__11TfErrorMark7IsCleanEv.exit.thread unwind label %34

_ZNK32pxrInternal_v0_24__pxrReserved__11TfErrorMark7IsCleanEv.exit.thread: ; preds = %.noexc, %18, %_ZNK32pxrInternal_v0_24__pxrReserved__11TfErrorMark7IsCleanEv.exit
  br i1 %11, label %24, label %36

24:                                               ; preds = %_ZNK32pxrInternal_v0_24__pxrReserved__11TfErrorMark7IsCleanEv.exit.thread
  %25 = invoke noundef nonnull align 8 dereferenceable(481) ptr @_ZN32pxrInternal_v0_24__pxrReserved__11TfSingletonINS_15TfDiagnosticMgrEE11GetInstanceEv()
          to label %.noexc9 unwind label %34

.noexc9:                                          ; preds = %24
  %26 = load i64, ptr %3, align 8
  %27 = getelementptr inbounds nuw i8, ptr %25, i64 152
  %28 = load atomic i64, ptr %27 seq_cst, align 8
  %.not.i8 = icmp ult i64 %26, %28
  br i1 %.not.i8, label %29, label %_ZNK32pxrInternal_v0_24__pxrReserved__11TfErrorMark7IsCleanEv.exit11.thread

29:                                               ; preds = %.noexc9
  %30 = invoke noundef zeroext i1 @_ZNK32pxrInternal_v0_24__pxrReserved__11TfErrorMark12_IsCleanImplERNS_15TfDiagnosticMgrE(ptr noundef nonnull align 8 dereferenceable(8) %3, ptr noundef nonnull align 8 dereferenceable(481) %25)
          to label %_ZNK32pxrInternal_v0_24__pxrReserved__11TfErrorMark7IsCleanEv.exit11 unwind label %34

_ZNK32pxrInternal_v0_24__pxrReserved__11TfErrorMark7IsCleanEv.exit11: ; preds = %29
  br i1 %30, label %_ZNK32pxrInternal_v0_24__pxrReserved__11TfErrorMark7IsCleanEv.exit11.thread, label %36

_ZNK32pxrInternal_v0_24__pxrReserved__11TfErrorMark7IsCleanEv.exit11.thread: ; preds = %.noexc9, %_ZNK32pxrInternal_v0_24__pxrReserved__11TfErrorMark7IsCleanEv.exit11
  %31 = invoke noundef nonnull align 8 dereferenceable(8) ptr @_ZStlsISt11char_traitsIcEERSt13basic_ostreamIcT_ES5_PKc(ptr noundef nonnull align 8 dereferenceable(8) @_ZSt4cout, ptr noundef nonnull @.str.27)
          to label %32 unwind label %34

32:                                               ; preds = %_ZNK32pxrInternal_v0_24__pxrReserved__11TfErrorMark7IsCleanEv.exit11.thread
  %33 = invoke noundef nonnull align 8 dereferenceable(8) ptr @_ZNSolsEPFRSoS_E(ptr noundef nonnull align 8 dereferenceable(8) %31, ptr noundef nonnull @_ZSt4endlIcSt11char_traitsIcEERSt13basic_ostreamIT_T0_ES6_)
          to label %40 unwind label %34

34:                                               ; preds = %29, %24, %16, %_Z49TestPinnedCurvesWithCurveIndicesAndIndexedPrimvarv.exit, %_Z32TestPinnedCurvesWithCurveIndicesv.exit, %_Z34TestPinnedCurvesWithIndexedPrimvarv.exit, %_Z22TestSimplePinnedCurvesv.exit, %2, %38, %36, %32, %_ZNK32pxrInternal_v0_24__pxrReserved__11TfErrorMark7IsCleanEv.exit11.thread, %18
  %35 = landingpad { ptr, i32 }
          cleanup
  call void @_ZN32pxrInternal_v0_24__pxrReserved__11TfErrorMarkD1Ev(ptr noundef nonnull align 8 dereferenceable(8) %3) #20
  resume { ptr, i32 } %35

36:                                               ; preds = %_ZNK32pxrInternal_v0_24__pxrReserved__11TfErrorMark7IsCleanEv.exit11, %_ZNK32pxrInternal_v0_24__pxrReserved__11TfErrorMark7IsCleanEv.exit.thread
  %37 = invoke noundef nonnull align 8 dereferenceable(8) ptr @_ZStlsISt11char_traitsIcEERSt13basic_ostreamIcT_ES5_PKc(ptr noundef nonnull align 8 dereferenceable(8) @_ZSt4cout, ptr noundef nonnull @.str.28)
          to label %38 unwind label %34

38:                                               ; preds = %36
  %39 = invoke noundef nonnull align 8 dereferenceable(8) ptr @_ZNSolsEPFRSoS_E(ptr noundef nonnull align 8 dereferenceable(8) %37, ptr noundef nonnull @_ZSt4endlIcSt11char_traitsIcEERSt13basic_ostreamIT_T0_ES6_)
          to label %40 unwind label %34

40:                                               ; preds = %38, %32
  %.0 = phi i32 [ 0, %32 ], [ 1, %38 ]
  call void @_ZN32pxrInternal_v0_24__pxrReserved__11TfErrorMarkD1Ev(ptr noundef nonnull align 8 dereferenceable(8) %3) #20
  ret i32 %.0
}